(((lp1
(lp2
F-0.12068388611078262
aF-0.060633230954408646
aF-0.99083751440048218
aF-5.6420621871948242
aF135.2808837890625
aF-71.29888916015625
aF-0.12195999175310135
aF-0.060152903199195862
aF-0.9907105565071106
aF-5.6877889633178711
aF135.373779296875
aF-71.206932067871094
aF-0.12331854552030563
aF-0.058496829122304916
aF-0.99064153432846069
aF-5.7440881729125977
aF135.53718566894531
aF-71.107887268066406
aF-0.12425749748945236
aF-0.057092081755399704
aF-0.99060618877410889
aF-5.7703089714050293
aF135.68661499023438
aF-71.018074035644531
aF-0.12528656423091888
aF-0.05591285228729248
aF-0.99054378271102905
aF-5.8145356178283691
aF135.87420654296875
aF-70.919143676757812
aF-0.12537486851215363
aF-0.05467933788895607
aF-0.99060148000717163
aF-5.8156023025512695
aF136.07846069335938
aF-70.736610412597656
aF-0.12536215782165527
aF-0.053370524197816849
aF-0.99067449569702148
aF-5.8086352348327637
aF136.30606079101562
aF-70.540191650390625
aF-0.1256328821182251
aF-0.054415512830018997
aF-0.99058330059051514
aF-5.7558197975158691
aF136.38853454589844
aF-70.157516479492188
aF-0.12611961364746094
aF-0.055326413363218307
aF-0.9904710054397583
aF-5.6948471069335938
aF136.47315979003906
aF-69.826889038085938
aF-0.12639209628105164
aF-0.053606476634740829
aF-0.99053084850311279
aF-5.6666054725646973
aF136.83711242675781
aF-69.566192626953125
aF-0.12661626935005188
aF-0.05243237316608429
aF-0.99056506156921387
aF-5.6546463966369629
aF137.02629089355469
aF-69.384681701660156
aF-0.12727859616279602
aF-0.049290996044874191
aF-0.99064147472381592
aF-5.6811428070068359
aF137.39759826660156
aF-69.205497741699219
aF-0.12754443287849426
aF-0.047757398337125778
aF-0.99068242311477661
aF-5.6829638481140137
aF137.59550476074219
aF-69.057075500488281
aF-0.12763196229934692
aF-0.046605966985225677
aF-0.99072599411010742
aF-5.6667118072509766
aF137.76339721679688
aF-68.918899536132812
aF-0.1278502494096756
aF-0.045401483774185181
aF-0.99075376987457275
aF-5.6591753959655762
aF137.93450927734375
aF-68.793716430664062
aF-0.12809817492961884
aF-0.044096697121858597
aF-0.99078065156936646
aF-5.6550631523132324
aF138.14161682128906
aF-68.662590026855469
aF-0.12852075695991516
aF-0.0428033247590065
aF-0.99078267812728882
aF-5.674283504486084
aF138.34281921386719
aF-68.557670593261719
aF-0.12879146635532379
aF-0.041687555611133575
aF-0.9907950758934021
aF-5.6936540603637695
aF138.52182006835938
aF-68.466712951660156
aF-0.12926186621189117
aF-0.040132544934749603
aF-0.99079805612564087
aF-5.7306327819824219
aF138.708984375
aF-68.387825012207031
aF-0.1295168399810791
aF-0.038900852203369141
aF-0.99081385135650635
aF-5.7512903213500977
aF138.88714599609375
aF-68.303009033203125
aF-0.12971673905849457
aF-0.037642672657966614
aF-0.99083632230758667
aF-5.7682814598083496
aF139.060791015625
aF-68.222175598144531
aF-0.12983618676662445
aF-0.036404650658369064
aF-0.99086689949035645
aF-5.7830066680908203
aF139.2489013671875
aF-68.135078430175781
aF-0.12994121015071869
aF-0.035150732845067978
aF-0.99089843034744263
aF-5.792231559753418
aF139.41712951660156
aF-68.056175231933594
aF-0.1299881786108017
aF-0.033937785774469376
aF-0.99093455076217651
aF-5.8015265464782715
aF139.57228088378906
aF-67.984748840332031
aF-0.12988805770874023
aF-0.032863307744264603
aF-0.99098390340805054
aF-5.805605411529541
aF139.70075988769531
aF-67.9208984375
aF-0.1298365592956543
aF-0.032142270356416702
aF-0.99101430177688599
aF-5.8052902221679688
aF139.813232421875
aF-67.864181518554688
aF-0.12979039549827576
aF-0.031643427908420563
aF-0.99103641510009766
aF-5.8086967468261719
aF139.91387939453125
aF-67.808738708496094
aF-0.12975366413593292
aF-0.031448449939489365
aF-0.9910474419593811
aF-5.8149595260620117
aF140.00212097167969
aF-67.753768920898438
aF-0.12978383898735046
aF-0.031395867466926575
aF-0.99104511737823486
aF-5.8215799331665039
aF140.07794189453125
aF-67.708999633789062
aF-0.12981957197189331
aF-0.031483959406614304
aF-0.99103766679763794
aF-5.8287220001220703
aF140.14305114746094
aF-67.671401977539062
aF-0.12986950576305389
aF-0.03152872622013092
aF-0.99102967977523804
aF-5.8353629112243652
aF140.197021484375
aF-67.642318725585938
aa(lp3
F-0.12441061437129974
aF-0.06345832347869873
aF-0.9901995062828064
aF-2.8619530200958252
aF145.88812255859375
aF-65.241172790527344
aF-0.12446748465299606
aF-0.063477687537670135
aF-0.99019110202789307
aF-2.8632044792175293
aF145.87490844726562
aF-65.238616943359375
aF-0.12452399730682373
aF-0.063513293862342834
aF-0.99018174409866333
aF-2.864570140838623
aF145.86186218261719
aF-65.236610412597656
aF-0.124556764960289
aF-0.06355246901512146
aF-0.99017506837844849
aF-2.864459753036499
aF145.84678649902344
aF-65.2359619140625
aF-0.12457677721977234
aF-0.063566148281097412
aF-0.99017167091369629
aF-2.8656044006347656
aF145.83384704589844
aF-65.236961364746094
aF-0.12458910048007965
aF-0.063572324812412262
aF-0.99016976356506348
aF-2.8657338619232178
aF145.82160949707031
aF-65.238319396972656
aF-0.12459994107484818
aF-0.063642017543315887
aF-0.99016392230987549
aF-2.8660852909088135
aF145.80671691894531
aF-65.240135192871094
aF-0.12462475150823593
aF-0.063680574297904968
aF-0.9901583194732666
aF-2.8671109676361084
aF145.79483032226562
aF-65.241004943847656
aF-0.12465056777000427
aF-0.063671767711639404
aF-0.99015563726425171
aF-2.8679289817810059
aF145.78640747070312
aF-65.241714477539062
aF-0.12471430003643036
aF-0.063629768788814545
aF-0.99015027284622192
aF-2.8703701496124268
aF145.77816772460938
aF-65.241661071777344
aF-0.1247689500451088
aF-0.063578762114048004
aF-0.9901466965675354
aF-2.8728363513946533
aF145.77204895019531
aF-65.242561340332031
aF-0.12481231242418289
aF-0.063539780676364899
aF-0.99014371633529663
aF-2.8751800060272217
aF145.76536560058594
aF-65.243545532226562
aF-0.12487635761499405
aF-0.0634869784116745
aF-0.99013900756835938
aF-2.8792402744293213
aF145.76078796386719
aF-65.245025634765625
aF-0.12497373670339584
aF-0.063301876187324524
aF-0.99013859033584595
aF-2.8932266235351562
aF145.75859069824219
aF-65.245681762695312
aF-0.12506470084190369
aF-0.06295313686132431
aF-0.99014931917190552
aF-2.9110298156738281
aF145.76123046875
aF-65.245597839355469
aF-0.1248420849442482
aF-0.058608580380678177
aF-0.99044406414031982
aF-2.9659926891326904
aF146.0234375
aF-65.26300048828125
aF-0.1235538125038147
aF-0.053714055567979813
aF-0.99088305234909058
aF-2.9757840633392334
aF146.29940795898438
aF-65.263595581054688
aF-0.1219671219587326
aF-0.049595709890127182
aF-0.991294264793396
aF-2.9388875961303711
aF146.54194641113281
aF-65.264877319335938
aF-0.12063580751419067
aF-0.047163784503936768
aF-0.99157577753067017
aF-2.9041767120361328
aF146.70166015625
aF-65.273689270019531
aF-0.11964898556470871
aF-0.045731734484434128
aF-0.99176245927810669
aF-2.8798701763153076
aF146.80880737304688
aF-65.284156799316406
aF-0.11893445253372192
aF-0.044949159026145935
aF-0.99188417196273804
aF-2.8617327213287354
aF146.88232421875
aF-65.292427062988281
aF-0.11833123117685318
aF-0.04500139132142067
aF-0.99195390939712524
aF-2.8460307121276855
aF146.91514587402344
aF-65.299331665039062
aF-0.11797439306974411
aF-0.045120202004909515
aF-0.99199104309082031
aF-2.8388638496398926
aF146.93795776367188
aF-65.305564880371094
aF-0.11767477542161942
aF-0.045306935906410217
aF-0.99201810359954834
aF-2.8319032192230225
aF146.95413208007812
aF-65.311996459960938
aF-0.11738382279872894
aF-0.045717630535364151
aF-0.99203372001647949
aF-2.8279752731323242
aF146.96163940429688
aF-65.3167724609375
aF-0.11712022125720978
aF-0.046042628586292267
aF-0.99204987287521362
aF-2.8260452747344971
aF146.97216796875
aF-65.321952819824219
aF-0.11681718379259109
aF-0.046374104917049408
aF-0.99207013845443726
aF-2.8212912082672119
aF146.98570251464844
aF-65.329193115234375
aF-0.11703230440616608
aF-0.047888141125440598
aF-0.99197286367416382
aF-2.8332109451293945
aF147.04182434082031
aF-65.415420532226562
aF-0.11671151220798492
aF-0.047707721590995789
aF-0.99201935529708862
aF-2.8289575576782227
aF147.07807922363281
aF-65.412269592285156
aF-0.11612769216299057
aF-0.047962922602891922
aF-0.99207556247711182
aF-2.8139846324920654
aF147.10826110839844
aF-65.408370971679688
aF-0.11563455313444138
aF-0.048172641545534134
aF-0.99212300777435303
aF-2.8003802299499512
aF147.13569641113281
aF-65.404541015625
aa(lp4
I1
aI1
atp5
((lp6
(lp7
F-0.12068388611078262
aF-0.060633230954408646
aF-0.99083751440048218
aF-5.6420621871948242
aF135.2808837890625
aF-71.29888916015625
aF-0.12195999175310135
aF-0.060152903199195862
aF-0.9907105565071106
aF-5.6877889633178711
aF135.373779296875
aF-71.206932067871094
aF-0.12331854552030563
aF-0.058496829122304916
aF-0.99064153432846069
aF-5.7440881729125977
aF135.53718566894531
aF-71.107887268066406
aF-0.12425749748945236
aF-0.057092081755399704
aF-0.99060618877410889
aF-5.7703089714050293
aF135.68661499023438
aF-71.018074035644531
aF-0.12528656423091888
aF-0.05591285228729248
aF-0.99054378271102905
aF-5.8145356178283691
aF135.87420654296875
aF-70.919143676757812
aF-0.12537486851215363
aF-0.05467933788895607
aF-0.99060148000717163
aF-5.8156023025512695
aF136.07846069335938
aF-70.736610412597656
aF-0.12536215782165527
aF-0.053370524197816849
aF-0.99067449569702148
aF-5.8086352348327637
aF136.30606079101562
aF-70.540191650390625
aF-0.1256328821182251
aF-0.054415512830018997
aF-0.99058330059051514
aF-5.7558197975158691
aF136.38853454589844
aF-70.157516479492188
aF-0.12611961364746094
aF-0.055326413363218307
aF-0.9904710054397583
aF-5.6948471069335938
aF136.47315979003906
aF-69.826889038085938
aF-0.12639209628105164
aF-0.053606476634740829
aF-0.99053084850311279
aF-5.6666054725646973
aF136.83711242675781
aF-69.566192626953125
aF-0.12661626935005188
aF-0.05243237316608429
aF-0.99056506156921387
aF-5.6546463966369629
aF137.02629089355469
aF-69.384681701660156
aF-0.12727859616279602
aF-0.049290996044874191
aF-0.99064147472381592
aF-5.6811428070068359
aF137.39759826660156
aF-69.205497741699219
aF-0.12754443287849426
aF-0.047757398337125778
aF-0.99068242311477661
aF-5.6829638481140137
aF137.59550476074219
aF-69.057075500488281
aF-0.12763196229934692
aF-0.046605966985225677
aF-0.99072599411010742
aF-5.6667118072509766
aF137.76339721679688
aF-68.918899536132812
aF-0.1278502494096756
aF-0.045401483774185181
aF-0.99075376987457275
aF-5.6591753959655762
aF137.93450927734375
aF-68.793716430664062
aF-0.12809817492961884
aF-0.044096697121858597
aF-0.99078065156936646
aF-5.6550631523132324
aF138.14161682128906
aF-68.662590026855469
aF-0.12852075695991516
aF-0.0428033247590065
aF-0.99078267812728882
aF-5.674283504486084
aF138.34281921386719
aF-68.557670593261719
aF-0.12879146635532379
aF-0.041687555611133575
aF-0.9907950758934021
aF-5.6936540603637695
aF138.52182006835938
aF-68.466712951660156
aF-0.12926186621189117
aF-0.040132544934749603
aF-0.99079805612564087
aF-5.7306327819824219
aF138.708984375
aF-68.387825012207031
aF-0.1295168399810791
aF-0.038900852203369141
aF-0.99081385135650635
aF-5.7512903213500977
aF138.88714599609375
aF-68.303009033203125
aF-0.12971673905849457
aF-0.037642672657966614
aF-0.99083632230758667
aF-5.7682814598083496
aF139.060791015625
aF-68.222175598144531
aF-0.12983618676662445
aF-0.036404650658369064
aF-0.99086689949035645
aF-5.7830066680908203
aF139.2489013671875
aF-68.135078430175781
aF-0.12994121015071869
aF-0.035150732845067978
aF-0.99089843034744263
aF-5.792231559753418
aF139.41712951660156
aF-68.056175231933594
aF-0.1299881786108017
aF-0.033937785774469376
aF-0.99093455076217651
aF-5.8015265464782715
aF139.57228088378906
aF-67.984748840332031
aF-0.12988805770874023
aF-0.032863307744264603
aF-0.99098390340805054
aF-5.805605411529541
aF139.70075988769531
aF-67.9208984375
aF-0.1298365592956543
aF-0.032142270356416702
aF-0.99101430177688599
aF-5.8052902221679688
aF139.813232421875
aF-67.864181518554688
aF-0.12979039549827576
aF-0.031643427908420563
aF-0.99103641510009766
aF-5.8086967468261719
aF139.91387939453125
aF-67.808738708496094
aF-0.12975366413593292
aF-0.031448449939489365
aF-0.9910474419593811
aF-5.8149595260620117
aF140.00212097167969
aF-67.753768920898438
aF-0.12978383898735046
aF-0.031395867466926575
aF-0.99104511737823486
aF-5.8215799331665039
aF140.07794189453125
aF-67.708999633789062
aF-0.12981957197189331
aF-0.031483959406614304
aF-0.99103766679763794
aF-5.8287220001220703
aF140.14305114746094
aF-67.671401977539062
aF-0.12986950576305389
aF-0.03152872622013092
aF-0.99102967977523804
aF-5.8353629112243652
aF140.197021484375
aF-67.642318725585938
aa(lp8
F-0.12441061437129974
aF-0.06345832347869873
aF-0.9901995062828064
aF-2.8619530200958252
aF145.88812255859375
aF-65.241172790527344
aF-0.12446748465299606
aF-0.063477687537670135
aF-0.99019110202789307
aF-2.8632044792175293
aF145.87490844726562
aF-65.238616943359375
aF-0.12452399730682373
aF-0.063513293862342834
aF-0.99018174409866333
aF-2.864570140838623
aF145.86186218261719
aF-65.236610412597656
aF-0.124556764960289
aF-0.06355246901512146
aF-0.99017506837844849
aF-2.864459753036499
aF145.84678649902344
aF-65.2359619140625
aF-0.12457677721977234
aF-0.063566148281097412
aF-0.99017167091369629
aF-2.8656044006347656
aF145.83384704589844
aF-65.236961364746094
aF-0.12458910048007965
aF-0.063572324812412262
aF-0.99016976356506348
aF-2.8657338619232178
aF145.82160949707031
aF-65.238319396972656
aF-0.12459994107484818
aF-0.063642017543315887
aF-0.99016392230987549
aF-2.8660852909088135
aF145.80671691894531
aF-65.240135192871094
aF-0.12462475150823593
aF-0.063680574297904968
aF-0.9901583194732666
aF-2.8671109676361084
aF145.79483032226562
aF-65.241004943847656
aF-0.12465056777000427
aF-0.063671767711639404
aF-0.99015563726425171
aF-2.8679289817810059
aF145.78640747070312
aF-65.241714477539062
aF-0.12471430003643036
aF-0.063629768788814545
aF-0.99015027284622192
aF-2.8703701496124268
aF145.77816772460938
aF-65.241661071777344
aF-0.1247689500451088
aF-0.063578762114048004
aF-0.9901466965675354
aF-2.8728363513946533
aF145.77204895019531
aF-65.242561340332031
aF-0.12481231242418289
aF-0.063539780676364899
aF-0.99014371633529663
aF-2.8751800060272217
aF145.76536560058594
aF-65.243545532226562
aF-0.12487635761499405
aF-0.0634869784116745
aF-0.99013900756835938
aF-2.8792402744293213
aF145.76078796386719
aF-65.245025634765625
aF-0.12497373670339584
aF-0.063301876187324524
aF-0.99013859033584595
aF-2.8932266235351562
aF145.75859069824219
aF-65.245681762695312
aF-0.12506470084190369
aF-0.06295313686132431
aF-0.99014931917190552
aF-2.9110298156738281
aF145.76123046875
aF-65.245597839355469
aF-0.1248420849442482
aF-0.058608580380678177
aF-0.99044406414031982
aF-2.9659926891326904
aF146.0234375
aF-65.26300048828125
aF-0.1235538125038147
aF-0.053714055567979813
aF-0.99088305234909058
aF-2.9757840633392334
aF146.29940795898438
aF-65.263595581054688
aF-0.1219671219587326
aF-0.049595709890127182
aF-0.991294264793396
aF-2.9388875961303711
aF146.54194641113281
aF-65.264877319335938
aF-0.12063580751419067
aF-0.047163784503936768
aF-0.99157577753067017
aF-2.9041767120361328
aF146.70166015625
aF-65.273689270019531
aF-0.11964898556470871
aF-0.045731734484434128
aF-0.99176245927810669
aF-2.8798701763153076
aF146.80880737304688
aF-65.284156799316406
aF-0.11893445253372192
aF-0.044949159026145935
aF-0.99188417196273804
aF-2.8617327213287354
aF146.88232421875
aF-65.292427062988281
aF-0.11833123117685318
aF-0.04500139132142067
aF-0.99195390939712524
aF-2.8460307121276855
aF146.91514587402344
aF-65.299331665039062
aF-0.11797439306974411
aF-0.045120202004909515
aF-0.99199104309082031
aF-2.8388638496398926
aF146.93795776367188
aF-65.305564880371094
aF-0.11767477542161942
aF-0.045306935906410217
aF-0.99201810359954834
aF-2.8319032192230225
aF146.95413208007812
aF-65.311996459960938
aF-0.11738382279872894
aF-0.045717630535364151
aF-0.99203372001647949
aF-2.8279752731323242
aF146.96163940429688
aF-65.3167724609375
aF-0.11712022125720978
aF-0.046042628586292267
aF-0.99204987287521362
aF-2.8260452747344971
aF146.97216796875
aF-65.321952819824219
aF-0.11681718379259109
aF-0.046374104917049408
aF-0.99207013845443726
aF-2.8212912082672119
aF146.98570251464844
aF-65.329193115234375
aF-0.11703230440616608
aF-0.047888141125440598
aF-0.99197286367416382
aF-2.8332109451293945
aF147.04182434082031
aF-65.415420532226562
aF-0.11671151220798492
aF-0.047707721590995789
aF-0.99201935529708862
aF-2.8289575576782227
aF147.07807922363281
aF-65.412269592285156
aF-0.11612769216299057
aF-0.047962922602891922
aF-0.99207556247711182
aF-2.8139846324920654
aF147.10826110839844
aF-65.408370971679688
aF-0.11563455313444138
aF-0.048172641545534134
aF-0.99212300777435303
aF-2.8003802299499512
aF147.13569641113281
aF-65.404541015625
aa(lp9
I1
aI1
atp10
((lp11
(lp12
F-0.12068388611078262
aF-0.060633230954408646
aF-0.99083751440048218
aF-5.6420621871948242
aF135.2808837890625
aF-71.29888916015625
aF-0.12195999175310135
aF-0.060152903199195862
aF-0.9907105565071106
aF-5.6877889633178711
aF135.373779296875
aF-71.206932067871094
aF-0.12331854552030563
aF-0.058496829122304916
aF-0.99064153432846069
aF-5.7440881729125977
aF135.53718566894531
aF-71.107887268066406
aF-0.12425749748945236
aF-0.057092081755399704
aF-0.99060618877410889
aF-5.7703089714050293
aF135.68661499023438
aF-71.018074035644531
aF-0.12528656423091888
aF-0.05591285228729248
aF-0.99054378271102905
aF-5.8145356178283691
aF135.87420654296875
aF-70.919143676757812
aF-0.12537486851215363
aF-0.05467933788895607
aF-0.99060148000717163
aF-5.8156023025512695
aF136.07846069335938
aF-70.736610412597656
aF-0.12536215782165527
aF-0.053370524197816849
aF-0.99067449569702148
aF-5.8086352348327637
aF136.30606079101562
aF-70.540191650390625
aF-0.1256328821182251
aF-0.054415512830018997
aF-0.99058330059051514
aF-5.7558197975158691
aF136.38853454589844
aF-70.157516479492188
aF-0.12611961364746094
aF-0.055326413363218307
aF-0.9904710054397583
aF-5.6948471069335938
aF136.47315979003906
aF-69.826889038085938
aF-0.12639209628105164
aF-0.053606476634740829
aF-0.99053084850311279
aF-5.6666054725646973
aF136.83711242675781
aF-69.566192626953125
aF-0.12661626935005188
aF-0.05243237316608429
aF-0.99056506156921387
aF-5.6546463966369629
aF137.02629089355469
aF-69.384681701660156
aF-0.12727859616279602
aF-0.049290996044874191
aF-0.99064147472381592
aF-5.6811428070068359
aF137.39759826660156
aF-69.205497741699219
aF-0.12754443287849426
aF-0.047757398337125778
aF-0.99068242311477661
aF-5.6829638481140137
aF137.59550476074219
aF-69.057075500488281
aF-0.12763196229934692
aF-0.046605966985225677
aF-0.99072599411010742
aF-5.6667118072509766
aF137.76339721679688
aF-68.918899536132812
aF-0.1278502494096756
aF-0.045401483774185181
aF-0.99075376987457275
aF-5.6591753959655762
aF137.93450927734375
aF-68.793716430664062
aF-0.12809817492961884
aF-0.044096697121858597
aF-0.99078065156936646
aF-5.6550631523132324
aF138.14161682128906
aF-68.662590026855469
aF-0.12852075695991516
aF-0.0428033247590065
aF-0.99078267812728882
aF-5.674283504486084
aF138.34281921386719
aF-68.557670593261719
aF-0.12879146635532379
aF-0.041687555611133575
aF-0.9907950758934021
aF-5.6936540603637695
aF138.52182006835938
aF-68.466712951660156
aF-0.12926186621189117
aF-0.040132544934749603
aF-0.99079805612564087
aF-5.7306327819824219
aF138.708984375
aF-68.387825012207031
aF-0.1295168399810791
aF-0.038900852203369141
aF-0.99081385135650635
aF-5.7512903213500977
aF138.88714599609375
aF-68.303009033203125
aF-0.12971673905849457
aF-0.037642672657966614
aF-0.99083632230758667
aF-5.7682814598083496
aF139.060791015625
aF-68.222175598144531
aF-0.12983618676662445
aF-0.036404650658369064
aF-0.99086689949035645
aF-5.7830066680908203
aF139.2489013671875
aF-68.135078430175781
aF-0.12994121015071869
aF-0.035150732845067978
aF-0.99089843034744263
aF-5.792231559753418
aF139.41712951660156
aF-68.056175231933594
aF-0.1299881786108017
aF-0.033937785774469376
aF-0.99093455076217651
aF-5.8015265464782715
aF139.57228088378906
aF-67.984748840332031
aF-0.12988805770874023
aF-0.032863307744264603
aF-0.99098390340805054
aF-5.805605411529541
aF139.70075988769531
aF-67.9208984375
aF-0.1298365592956543
aF-0.032142270356416702
aF-0.99101430177688599
aF-5.8052902221679688
aF139.813232421875
aF-67.864181518554688
aF-0.12979039549827576
aF-0.031643427908420563
aF-0.99103641510009766
aF-5.8086967468261719
aF139.91387939453125
aF-67.808738708496094
aF-0.12975366413593292
aF-0.031448449939489365
aF-0.9910474419593811
aF-5.8149595260620117
aF140.00212097167969
aF-67.753768920898438
aF-0.12978383898735046
aF-0.031395867466926575
aF-0.99104511737823486
aF-5.8215799331665039
aF140.07794189453125
aF-67.708999633789062
aF-0.12981957197189331
aF-0.031483959406614304
aF-0.99103766679763794
aF-5.8287220001220703
aF140.14305114746094
aF-67.671401977539062
aF-0.12986950576305389
aF-0.03152872622013092
aF-0.99102967977523804
aF-5.8353629112243652
aF140.197021484375
aF-67.642318725585938
aa(lp13
F-0.12441061437129974
aF-0.06345832347869873
aF-0.9901995062828064
aF-2.8619530200958252
aF145.88812255859375
aF-65.241172790527344
aF-0.12446748465299606
aF-0.063477687537670135
aF-0.99019110202789307
aF-2.8632044792175293
aF145.87490844726562
aF-65.238616943359375
aF-0.12452399730682373
aF-0.063513293862342834
aF-0.99018174409866333
aF-2.864570140838623
aF145.86186218261719
aF-65.236610412597656
aF-0.124556764960289
aF-0.06355246901512146
aF-0.99017506837844849
aF-2.864459753036499
aF145.84678649902344
aF-65.2359619140625
aF-0.12457677721977234
aF-0.063566148281097412
aF-0.99017167091369629
aF-2.8656044006347656
aF145.83384704589844
aF-65.236961364746094
aF-0.12458910048007965
aF-0.063572324812412262
aF-0.99016976356506348
aF-2.8657338619232178
aF145.82160949707031
aF-65.238319396972656
aF-0.12459994107484818
aF-0.063642017543315887
aF-0.99016392230987549
aF-2.8660852909088135
aF145.80671691894531
aF-65.240135192871094
aF-0.12462475150823593
aF-0.063680574297904968
aF-0.9901583194732666
aF-2.8671109676361084
aF145.79483032226562
aF-65.241004943847656
aF-0.12465056777000427
aF-0.063671767711639404
aF-0.99015563726425171
aF-2.8679289817810059
aF145.78640747070312
aF-65.241714477539062
aF-0.12471430003643036
aF-0.063629768788814545
aF-0.99015027284622192
aF-2.8703701496124268
aF145.77816772460938
aF-65.241661071777344
aF-0.1247689500451088
aF-0.063578762114048004
aF-0.9901466965675354
aF-2.8728363513946533
aF145.77204895019531
aF-65.242561340332031
aF-0.12481231242418289
aF-0.063539780676364899
aF-0.99014371633529663
aF-2.8751800060272217
aF145.76536560058594
aF-65.243545532226562
aF-0.12487635761499405
aF-0.0634869784116745
aF-0.99013900756835938
aF-2.8792402744293213
aF145.76078796386719
aF-65.245025634765625
aF-0.12497373670339584
aF-0.063301876187324524
aF-0.99013859033584595
aF-2.8932266235351562
aF145.75859069824219
aF-65.245681762695312
aF-0.12506470084190369
aF-0.06295313686132431
aF-0.99014931917190552
aF-2.9110298156738281
aF145.76123046875
aF-65.245597839355469
aF-0.1248420849442482
aF-0.058608580380678177
aF-0.99044406414031982
aF-2.9659926891326904
aF146.0234375
aF-65.26300048828125
aF-0.1235538125038147
aF-0.053714055567979813
aF-0.99088305234909058
aF-2.9757840633392334
aF146.29940795898438
aF-65.263595581054688
aF-0.1219671219587326
aF-0.049595709890127182
aF-0.991294264793396
aF-2.9388875961303711
aF146.54194641113281
aF-65.264877319335938
aF-0.12063580751419067
aF-0.047163784503936768
aF-0.99157577753067017
aF-2.9041767120361328
aF146.70166015625
aF-65.273689270019531
aF-0.11964898556470871
aF-0.045731734484434128
aF-0.99176245927810669
aF-2.8798701763153076
aF146.80880737304688
aF-65.284156799316406
aF-0.11893445253372192
aF-0.044949159026145935
aF-0.99188417196273804
aF-2.8617327213287354
aF146.88232421875
aF-65.292427062988281
aF-0.11833123117685318
aF-0.04500139132142067
aF-0.99195390939712524
aF-2.8460307121276855
aF146.91514587402344
aF-65.299331665039062
aF-0.11797439306974411
aF-0.045120202004909515
aF-0.99199104309082031
aF-2.8388638496398926
aF146.93795776367188
aF-65.305564880371094
aF-0.11767477542161942
aF-0.045306935906410217
aF-0.99201810359954834
aF-2.8319032192230225
aF146.95413208007812
aF-65.311996459960938
aF-0.11738382279872894
aF-0.045717630535364151
aF-0.99203372001647949
aF-2.8279752731323242
aF146.96163940429688
aF-65.3167724609375
aF-0.11712022125720978
aF-0.046042628586292267
aF-0.99204987287521362
aF-2.8260452747344971
aF146.97216796875
aF-65.321952819824219
aF-0.11681718379259109
aF-0.046374104917049408
aF-0.99207013845443726
aF-2.8212912082672119
aF146.98570251464844
aF-65.329193115234375
aF-0.11703230440616608
aF-0.047888141125440598
aF-0.99197286367416382
aF-2.8332109451293945
aF147.04182434082031
aF-65.415420532226562
aF-0.11671151220798492
aF-0.047707721590995789
aF-0.99201935529708862
aF-2.8289575576782227
aF147.07807922363281
aF-65.412269592285156
aF-0.11612769216299057
aF-0.047962922602891922
aF-0.99207556247711182
aF-2.8139846324920654
aF147.10826110839844
aF-65.408370971679688
aF-0.11563455313444138
aF-0.048172641545534134
aF-0.99212300777435303
aF-2.8003802299499512
aF147.13569641113281
aF-65.404541015625
aa(lp14
I1
aI1
atp15
tp16
.